target datalayout = "e-m:e-p270:32:32-p271:32:32-p272:64:64-i64:64-i128:128-f80:128-n8:16:32:64-S128"
target triple = "x86_64-pc-linux-gnu"

%"class.rocksdb::Status" = type { i8, i8, i8, i8, i8, i8, %"class.std::unique_ptr" }
%"class.std::unique_ptr" = type { %"struct.std::__uniq_ptr_data" }
%"struct.std::__uniq_ptr_data" = type { %"class.std::__uniq_ptr_impl" }
%"class.std::__uniq_ptr_impl" = type { %"class.std::tuple" }
%"class.std::tuple" = type { %"struct.std::_Tuple_impl" }
%"struct.std::_Tuple_impl" = type { %"struct.std::_Head_base.1" }
%"struct.std::_Head_base.1" = type { ptr }
%"class.rocksdb::Env" = type { %"class.rocksdb::Customizable", ptr, %"class.std::shared_ptr", %"class.std::shared_ptr.16" }
%"class.rocksdb::Customizable" = type { %"class.rocksdb::Configurable" }
%"class.rocksdb::Configurable" = type { ptr, %"class.std::vector" }
%"class.std::vector" = type { %"struct.std::_Vector_base" }
%"struct.std::_Vector_base" = type { %"struct.std::_Vector_base<rocksdb::Configurable::RegisteredOptions, std::allocator<rocksdb::Configurable::RegisteredOptions>>::_Vector_impl" }
%"struct.std::_Vector_base<rocksdb::Configurable::RegisteredOptions, std::allocator<rocksdb::Configurable::RegisteredOptions>>::_Vector_impl" = type { %"struct.std::_Vector_base<rocksdb::Configurable::RegisteredOptions, std::allocator<rocksdb::Configurable::RegisteredOptions>>::_Vector_impl_data" }
%"struct.std::_Vector_base<rocksdb::Configurable::RegisteredOptions, std::allocator<rocksdb::Configurable::RegisteredOptions>>::_Vector_impl_data" = type { ptr, ptr, ptr }
%"class.std::shared_ptr" = type { %"class.std::__shared_ptr" }
%"class.std::__shared_ptr" = type { ptr, %"class.std::__shared_count" }
%"class.std::__shared_count" = type { ptr }
%"class.std::shared_ptr.16" = type { %"class.std::__shared_ptr.17" }
%"class.std::__shared_ptr.17" = type { ptr, %"class.std::__shared_count" }
%"struct.rocksdb::EnvWrapper::Target" = type { ptr, %"class.std::shared_ptr.135" }
%"class.std::shared_ptr.135" = type { %"class.std::__shared_ptr.136" }
%"class.std::__shared_ptr.136" = type { ptr, %"class.std::__shared_count" }
%"class.rocksdb::EnvWrapper" = type { %"class.rocksdb::Env", %"struct.rocksdb::EnvWrapper::Target" }

; Function Attrs: mustprogress nounwind uwtable
define linkonce_odr noundef ptr @_ZNKSt12__shared_ptrIN7rocksdb3EnvELN9__gnu_cxx12_Lock_policyE2EE3getEv(ptr noundef nonnull align 8 dereferenceable(16) %0) #2 comdat align 2 {
  %2 = alloca ptr, align 8
  store ptr %0, ptr %2, align 8, !tbaa !605
  %3 = load ptr, ptr %2, align 8
  %4 = getelementptr inbounds nuw %"class.std::__shared_ptr.136", ptr %3, i32 0, i32 0
  %5 = load ptr, ptr %4, align 8, !tbaa !607
  ret ptr %5
}

; Function Attrs: mustprogress uwtable
define linkonce_odr void @_ZN7rocksdb10EnvWrapper6Target7PrepareEv(ptr noundef nonnull align 8 dereferenceable(24) %0) #0 comdat align 2 {
  %2 = alloca ptr, align 8
  store ptr %0, ptr %2, align 8, !tbaa !215
  %3 = load ptr, ptr %2, align 8
  %4 = getelementptr inbounds nuw %"struct.rocksdb::EnvWrapper::Target", ptr %3, i32 0, i32 1
  %5 = call noundef ptr @_ZNKSt12__shared_ptrIN7rocksdb3EnvELN9__gnu_cxx12_Lock_policyE2EE3getEv(ptr noundef nonnull align 8 dereferenceable(16) %4) #7
  %6 = icmp ne ptr %5, null
  br i1 %6, label %7, label %11

7:                                                ; preds = %1
  %8 = getelementptr inbounds nuw %"struct.rocksdb::EnvWrapper::Target", ptr %3, i32 0, i32 1
  %9 = call noundef ptr @_ZNKSt12__shared_ptrIN7rocksdb3EnvELN9__gnu_cxx12_Lock_policyE2EE3getEv(ptr noundef nonnull align 8 dereferenceable(16) %8) #7
  %10 = getelementptr inbounds nuw %"struct.rocksdb::EnvWrapper::Target", ptr %3, i32 0, i32 0
  store ptr %9, ptr %10, align 8, !tbaa !217
  br label %19

11:                                               ; preds = %1
  %12 = getelementptr inbounds nuw %"struct.rocksdb::EnvWrapper::Target", ptr %3, i32 0, i32 0
  %13 = load ptr, ptr %12, align 8, !tbaa !217
  %14 = icmp eq ptr %13, null
  br i1 %14, label %15, label %18

15:                                               ; preds = %11
  %16 = call noundef ptr @_ZN7rocksdb3Env7DefaultEv()
  %17 = getelementptr inbounds nuw %"struct.rocksdb::EnvWrapper::Target", ptr %3, i32 0, i32 0
  store ptr %16, ptr %17, align 8, !tbaa !217
  br label %18

18:                                               ; preds = %15, %11
  br label %19

19:                                               ; preds = %18, %7
  ret void
}

; Function Attrs: mustprogress uwtable
define void @_ZN7rocksdb10EnvWrapper14PrepareOptionsERKNS_13ConfigOptionsE(ptr dead_on_unwind noalias writable sret(%"class.rocksdb::Status") align 8 %0, ptr noundef nonnull align 8 dereferenceable(96) %1, ptr noundef nonnull align 8 dereferenceable(80) %2) unnamed_addr #0 align 2 {
  %4 = alloca ptr, align 8
  %5 = alloca ptr, align 8
  %6 = alloca ptr, align 8
  store ptr %0, ptr %4, align 8
  store ptr %1, ptr %5, align 8, !tbaa !251
  store ptr %2, ptr %6, align 8, !tbaa !227
  %7 = load ptr, ptr %5, align 8
  %8 = getelementptr inbounds nuw %"class.rocksdb::EnvWrapper", ptr %7, i32 0, i32 1
  call void @_ZN7rocksdb10EnvWrapper6Target7PrepareEv(ptr noundef nonnull align 8 dereferenceable(24) %8)
  %9 = load ptr, ptr %6, align 8, !tbaa !227
  call void @_ZN7rocksdb12Configurable14PrepareOptionsERKNS_13ConfigOptionsE(ptr dead_on_unwind writable sret(%"class.rocksdb::Status") align 8 %0, ptr noundef nonnull align 8 dereferenceable(32) %7, ptr noundef nonnull align 8 dereferenceable(80) %9)
  ret void
}