; Function Attrs: mustprogress uwtable
define void @_ZN7rocksdb10EnvWrapper14PrepareOptionsERKNS_13ConfigOptionsE(ptr dead_on_unwind noalias writable sret(%"class.rocksdb::Status") align 8 %0, ptr noundef nonnull align 8 dereferenceable(96) %1, ptr noundef nonnull align 8 dereferenceable(80) %2) unnamed_addr #0 align 2 {
  %4 = getelementptr inbounds nuw i8, ptr %1, i64 72
  %5 = getelementptr inbounds nuw i8, ptr %1, i64 80
  %6 = load ptr, ptr %5, align 8, !tbaa !172
  %.not.i = icmp eq ptr %6, null
  br i1 %.not.i, label %7, label %.sink.split.i

7:                                                ; preds = %3
  %8 = load ptr, ptr %4, align 8, !tbaa !162
  %9 = icmp eq ptr %8, null
  br i1 %9, label %10, label %_ZN7rocksdb10EnvWrapper6Target7PrepareEv.exit

10:                                               ; preds = %7
  %11 = tail call noundef ptr @_ZN7rocksdb3Env7DefaultEv()
  br label %.sink.split.i

.sink.split.i:                                    ; preds = %10, %3
  %.sink.i = phi ptr [ %11, %10 ], [ %6, %3 ]
  store ptr %.sink.i, ptr %4, align 8, !tbaa !162
  br label %_ZN7rocksdb10EnvWrapper6Target7PrepareEv.exit

_ZN7rocksdb10EnvWrapper6Target7PrepareEv.exit:    ; preds = %7, %.sink.split.i
  tail call void @_ZN7rocksdb12Configurable14PrepareOptionsERKNS_13ConfigOptionsE(ptr dead_on_unwind writable sret(%"class.rocksdb::Status") align 8 %0, ptr noundef nonnull align 8 dereferenceable(32) %1, ptr noundef nonnull align 8 dereferenceable(80) %2)
  ret void
}